; Function Attrs: nounwind uwtable
define hidden i32 @SDL_GetSensorNonPortableTypeForID_REAL(i32 noundef %0) local_unnamed_addr #1 {
  %2 = tail call i32 @SDL_AddAtomicInt_REAL(ptr noundef nonnull @SDL_sensor_lock_pending, i32 noundef 1) #9
  %3 = load ptr, ptr @SDL_sensor_lock, align 8
  tail call void @SDL_LockMutex_REAL(ptr noundef %3) #9
  %4 = tail call i32 @SDL_AddAtomicInt_REAL(ptr noundef nonnull @SDL_sensor_lock_pending, i32 noundef -1) #9
  %5 = load i32, ptr @SDL_sensors_locked, align 4
  %6 = add nsw i32 %5, 1
  store i32 %6, ptr @SDL_sensors_locked, align 4
  %.not.i = icmp eq i32 %0, 0
  br i1 %.not.i, label %SDL_GetDriverAndSensorIndex.exit, label %7

7:                                                ; preds = %1
  %8 = load ptr, ptr getelementptr inbounds nuw (i8, ptr @SDL_DUMMY_SensorDriver, i64 8), align 8
  %9 = tail call i32 %8() #9
  %10 = icmp sgt i32 %9, 0
  br i1 %10, label %.lr.ph.i, label %SDL_GetDriverAndSensorIndex.exit

.lr.ph.i:                                         ; preds = %7, %.critedge24.i
  %.01826.i = phi i32 [ %13, %.critedge24.i ], [ 0, %7 ]
  %11 = load ptr, ptr getelementptr inbounds nuw (i8, ptr @SDL_DUMMY_SensorDriver, i64 48), align 8
  %12 = tail call i32 %11(i32 noundef %.01826.i) #9
  %.not22.i = icmp eq i32 %12, %0
  br i1 %.not22.i, label %15, label %.critedge24.i

.critedge24.i:                                    ; preds = %.lr.ph.i
  %13 = add nuw nsw i32 %.01826.i, 1
  %exitcond.not.i = icmp eq i32 %13, %9
  br i1 %exitcond.not.i, label %SDL_GetDriverAndSensorIndex.exit, label %.lr.ph.i, !llvm.loop !6

SDL_GetDriverAndSensorIndex.exit:                 ; preds = %.critedge24.i, %1, %7
  %14 = tail call zeroext i1 (ptr, ...) @SDL_SetError_REAL(ptr noundef nonnull @.str.2, i32 noundef %0) #9
  br label %18

15:                                               ; preds = %.lr.ph.i
  %16 = load ptr, ptr getelementptr inbounds nuw (i8, ptr @SDL_DUMMY_SensorDriver, i64 40), align 8
  %17 = tail call i32 %16(i32 noundef %.01826.i) #9
  br label %18

18:                                               ; preds = %SDL_GetDriverAndSensorIndex.exit, %15
  %.0 = phi i32 [ %17, %15 ], [ -1, %SDL_GetDriverAndSensorIndex.exit ]
  %19 = load i32, ptr @SDL_sensors_locked, align 4
  %20 = add nsw i32 %19, -1
  store i32 %20, ptr @SDL_sensors_locked, align 4
  %.b4.i = load i1, ptr @SDL_sensors_initialized, align 1
  %21 = icmp ne i32 %20, 0
  %or.cond.i = select i1 %.b4.i, i1 true, i1 %21
  br i1 %or.cond.i, label %.critedge.i2, label %22

22:                                               ; preds = %18
  %23 = tail call i32 @SDL_GetAtomicInt_REAL(ptr noundef nonnull @SDL_sensor_lock_pending) #9
  %24 = icmp eq i32 %23, 0
  br i1 %24, label %25, label %.critedge.i2

25:                                               ; preds = %22
  %26 = load ptr, ptr @SDL_sensor_lock, align 8
  tail call void @SDL_LockMutex_REAL(ptr noundef %26) #9
  %27 = load ptr, ptr @SDL_sensor_lock, align 8
  tail call void @SDL_UnlockMutex_REAL(ptr noundef %27) #9
  store ptr null, ptr @SDL_sensor_lock, align 8
  tail call void @SDL_UnlockMutex_REAL(ptr noundef %26) #9
  tail call void @SDL_DestroyMutex_REAL(ptr noundef %26) #9
  br label %SDL_UnlockSensors.exit

.critedge.i2:                                     ; preds = %22, %18
  %28 = load ptr, ptr @SDL_sensor_lock, align 8
  tail call void @SDL_UnlockMutex_REAL(ptr noundef %28) #9
  br label %SDL_UnlockSensors.exit

SDL_UnlockSensors.exit:                           ; preds = %25, %.critedge.i2
  ret i32 %.0
}